; ModuleID = '60/254.c'
source_filename = "60/254.c"
target datalayout = "e-m:e-p270:32:32-p271:32:32-p272:64:64-i64:64-f80:128-n8:16:32:64-S128"
target triple = "x86_64-pc-linux-gnu"

@.str = private unnamed_addr constant [3 x i8] c"%d\00", align 1
@.str.1 = private unnamed_addr constant [7 x i8] c"empty\0A\00", align 1
@.str.2 = private unnamed_addr constant [7 x i8] c"%d %d\0A\00", align 1

; Function Attrs: noinline nounwind uwtable
define dso_local i32 @main() #0 {
  %1 = alloca i32, align 4
  %2 = alloca i32, align 4
  %3 = alloca i32, align 4
  %4 = alloca i32, align 4
  %5 = alloca i32, align 4
  %6 = alloca i32, align 4
  %7 = alloca [1000000 x i32], align 16
  %8 = alloca double, align 8
  store i32 0, i32* %1, align 4
  %9 = call i32 (i8*, ...) @__isoc99_scanf(i8* getelementptr inbounds ([3 x i8], [3 x i8]* @.str, i64 0, i64 0), i32* %6)
  %10 = load i32, i32* %6, align 4
  %11 = icmp slt i32 %10, 5
  br i1 %11, label %12, label %14

12:                                               ; preds = %0
  %13 = call i32 (i8*, ...) @printf(i8* getelementptr inbounds ([7 x i8], [7 x i8]* @.str.1, i64 0, i64 0))
  br label %94

14:                                               ; preds = %0
  %15 = getelementptr inbounds [1000000 x i32], [1000000 x i32]* %7, i64 0, i64 0
  store i32 3, i32* %15, align 16
  store i32 0, i32* %5, align 4
  store i32 1, i32* %3, align 4
  br label %16

16:                                               ; preds = %60, %14
  %17 = load i32, i32* %5, align 4
  %18 = load i32, i32* %6, align 4
  %19 = icmp slt i32 %17, %18
  br i1 %19, label %20, label %61

20:                                               ; preds = %16
  store i32 5, i32* %5, align 4
  br label %21

21:                                               ; preds = %57, %20
  %22 = load i32, i32* %5, align 4
  %23 = load i32, i32* %6, align 4
  %24 = icmp sle i32 %22, %23
  br i1 %24, label %25, label %60

25:                                               ; preds = %21
  %26 = load i32, i32* %5, align 4
  %27 = sitofp i32 %26 to double
  %28 = call double @sqrt(double %27) #3
  store double %28, double* %8, align 8
  store i32 2, i32* %4, align 4
  br label %29

29:                                               ; preds = %41, %25
  %30 = load i32, i32* %4, align 4
  %31 = sitofp i32 %30 to double
  %32 = load double, double* %8, align 8
  %33 = fcmp ole double %31, %32
  br i1 %33, label %34, label %44

34:                                               ; preds = %29
  %35 = load i32, i32* %5, align 4
  %36 = load i32, i32* %4, align 4
  %37 = srem i32 %35, %36
  %38 = icmp eq i32 %37, 0
  br i1 %38, label %39, label %40

39:                                               ; preds = %34
  br label %44

40:                                               ; preds = %34
  br label %41

41:                                               ; preds = %40
  %42 = load i32, i32* %4, align 4
  %43 = add nsw i32 %42, 1
  store i32 %43, i32* %4, align 4
  br label %29

44:                                               ; preds = %39, %29
  %45 = load i32, i32* %4, align 4
  %46 = sitofp i32 %45 to double
  %47 = load double, double* %8, align 8
  %48 = fcmp ogt double %46, %47
  br i1 %48, label %49, label %56

49:                                               ; preds = %44
  %50 = load i32, i32* %5, align 4
  %51 = load i32, i32* %3, align 4
  %52 = sext i32 %51 to i64
  %53 = getelementptr inbounds [1000000 x i32], [1000000 x i32]* %7, i64 0, i64 %52
  store i32 %50, i32* %53, align 4
  %54 = load i32, i32* %3, align 4
  %55 = add nsw i32 %54, 1
  store i32 %55, i32* %3, align 4
  br label %56

56:                                               ; preds = %49, %44
  br label %57

57:                                               ; preds = %56
  %58 = load i32, i32* %5, align 4
  %59 = add nsw i32 %58, 1
  store i32 %59, i32* %5, align 4
  br label %21

60:                                               ; preds = %21
  br label %16

61:                                               ; preds = %16
  store i32 1, i32* %2, align 4
  br label %62

62:                                               ; preds = %90, %61
  %63 = load i32, i32* %2, align 4
  %64 = load i32, i32* %3, align 4
  %65 = icmp slt i32 %63, %64
  br i1 %65, label %66, label %93

66:                                               ; preds = %62
  %67 = load i32, i32* %2, align 4
  %68 = sext i32 %67 to i64
  %69 = getelementptr inbounds [1000000 x i32], [1000000 x i32]* %7, i64 0, i64 %68
  %70 = load i32, i32* %69, align 4
  %71 = load i32, i32* %2, align 4
  %72 = sub nsw i32 %71, 1
  %73 = sext i32 %72 to i64
  %74 = getelementptr inbounds [1000000 x i32], [1000000 x i32]* %7, i64 0, i64 %73
  %75 = load i32, i32* %74, align 4
  %76 = add nsw i32 %75, 2
  %77 = icmp eq i32 %70, %76
  br i1 %77, label %78, label %89

78:                                               ; preds = %66
  %79 = load i32, i32* %2, align 4
  %80 = sub nsw i32 %79, 1
  %81 = sext i32 %80 to i64
  %82 = getelementptr inbounds [1000000 x i32], [1000000 x i32]* %7, i64 0, i64 %81
  %83 = load i32, i32* %82, align 4
  %84 = load i32, i32* %2, align 4
  %85 = sext i32 %84 to i64
  %86 = getelementptr inbounds [1000000 x i32], [1000000 x i32]* %7, i64 0, i64 %85
  %87 = load i32, i32* %86, align 4
  %88 = call i32 (i8*, ...) @printf(i8* getelementptr inbounds ([7 x i8], [7 x i8]* @.str.2, i64 0, i64 0), i32 %83, i32 %87)
  br label %89

89:                                               ; preds = %78, %66
  br label %90

90:                                               ; preds = %89
  %91 = load i32, i32* %2, align 4
  %92 = add nsw i32 %91, 1
  store i32 %92, i32* %2, align 4
  br label %62

93:                                               ; preds = %62
  br label %94

94:                                               ; preds = %93, %12
  %95 = call i32 @getchar()
  %96 = call i32 @getchar()
  ret i32 0
}

declare dso_local i32 @__isoc99_scanf(i8*, ...) #1

declare dso_local i32 @printf(i8*, ...) #1

; Function Attrs: nounwind
declare dso_local double @sqrt(double) #2

declare dso_local i32 @getchar() #1


!llvm.module.flags = !{!0}
!llvm.ident = !{!1}

!0 = !{i32 1, !"wchar_size", i32 4}
!1 = !{!"clang version 10.0.0-4ubuntu1 "}
